; Function Attrs: mustprogress nounwind uwtable
define internal void @_ZZ32test_submodule_virtual_functionsRN8pybind117module_EEN3PyAD2Ev(ptr noundef nonnull writeonly align 8 captures(none) dereferenceable(8) initializes((0, 8)) %0) unnamed_addr #6 align 2 personality ptr @__gxx_personality_v0 {
  store ptr getelementptr inbounds nuw inrange(-16, 24) (i8, ptr @_ZTVZ32test_submodule_virtual_functionsRN8pybind117module_EE3PyA, i64 16), ptr %0, align 8, !tbaa !396
  invoke void @_ZN8pybind115printILNS_19return_value_policyE1EJRA11_KcEEEvDpOT0_(ptr noundef nonnull align 1 dereferenceable(11) @.str.236)
          to label %2 unwind label %3

2:                                                ; preds = %1
  ret void

3:                                                ; preds = %1
  %4 = landingpad { ptr, i32 }
          catch ptr null
  %5 = extractvalue { ptr, i32 } %4, 0
  tail call void @__clang_call_terminate(ptr %5) #32
  unreachable
}